target datalayout = "e-m:e-p270:32:32-p271:32:32-p272:64:64-i64:64-i128:128-f80:128-n8:16:32:64-S128"
target triple = "x86_64-pc-linux-gnu"

; Function Attrs: mustprogress nounwind uwtable
define noundef zeroext i1 @_ZN3net13SpdyConstants25IsValidHTTP2FrameStreamIdEjNS_13SpdyFrameTypeE(i32 noundef %0, i32 noundef %1) #3 align 2 {
  %3 = alloca i1, align 1
  %4 = alloca i32, align 4
  %5 = alloca i32, align 4
  store i32 %0, ptr %4, align 4, !tbaa !17
  store i32 %1, ptr %5, align 4, !tbaa !23
  %6 = load i32, ptr %4, align 4, !tbaa !17
  %7 = icmp eq i32 %6, 0
  br i1 %7, label %8, label %12

8:                                                ; preds = %2
  %9 = load i32, ptr %5, align 4, !tbaa !23
  switch i32 %9, label %11 [
    i32 0, label %10
    i32 7, label %10
    i32 11, label %10
    i32 3, label %10
    i32 10, label %10
    i32 9, label %10
  ]

10:                                               ; preds = %8, %8, %8, %8, %8, %8
  store i1 false, ptr %3, align 1
  br label %16

11:                                               ; preds = %8
  store i1 true, ptr %3, align 1
  br label %16

12:                                               ; preds = %2
  %13 = load i32, ptr %5, align 4, !tbaa !23
  switch i32 %13, label %15 [
    i32 6, label %14
    i32 4, label %14
    i32 5, label %14
  ]

14:                                               ; preds = %12, %12, %12
  store i1 false, ptr %3, align 1
  br label %16

15:                                               ; preds = %12
  store i1 true, ptr %3, align 1
  br label %16

16:                                               ; preds = %15, %14, %11, %10
  %17 = load i1, ptr %3, align 1
  ret i1 %17
}