; Function Attrs: mustprogress nofree norecurse nosync nounwind willreturn memory(none) uwtable
define noundef zeroext i1 @_ZN3net13SpdyConstants25IsValidHTTP2FrameStreamIdEjNS_13SpdyFrameTypeE(i32 noundef %0, i32 noundef %1) local_unnamed_addr #4 align 2 {
  %3 = icmp eq i32 %0, 0
  br i1 %3, label %4, label %6

4:                                                ; preds = %2
  %5 = icmp ult i32 %1, 12
  br i1 %5, label %switch.lookup, label %8

6:                                                ; preds = %2
  %7 = add i32 %1, -7
  %switch = icmp ult i32 %7, -3
  br label %8

switch.lookup:                                    ; preds = %4
  %switch.cast = trunc nuw i32 %1 to i12
  %switch.downshift = lshr i12 374, %switch.cast
  %switch.masked = trunc i12 %switch.downshift to i1
  br label %8

8:                                                ; preds = %4, %switch.lookup, %6
  %.0 = phi i1 [ %switch, %6 ], [ %switch.masked, %switch.lookup ], [ true, %4 ]
  ret i1 %.0
}